target datalayout = "e-m:e-p270:32:32-p271:32:32-p272:64:64-i64:64-i128:128-f80:128-n8:16:32:64-S128"
target triple = "x86_64-unknown-linux-gnu"

%struct.grpc_channel_filter = type { ptr, ptr, ptr, ptr, i64, ptr, ptr, ptr, i64, ptr, ptr, ptr, ptr, ptr }
%struct.grpc_channel_element = type { ptr, ptr }
%struct.grpc_channel_stack = type { %struct.grpc_stream_refcount, i64, i64, %"class.grpc_core::ManualConstructor.3", %"class.grpc_core::ManualConstructor.4" }
%struct.grpc_stream_refcount = type { %"class.grpc_core::RefCount", %struct.grpc_closure }
%"class.grpc_core::RefCount" = type { %"struct.std::atomic.0" }
%"struct.std::atomic.0" = type { %"struct.std::__atomic_base.1" }
%"struct.std::__atomic_base.1" = type { i64 }
%struct.grpc_closure = type { %union.anon, ptr, ptr, %union.anon.2 }
%union.anon = type { ptr }
%union.anon.2 = type { i64 }
%"class.grpc_core::ManualConstructor.3" = type { [32 x i8] }
%"class.grpc_core::ManualConstructor.4" = type { [16 x i8] }

; Function Attrs: mustprogress nounwind uwtable
define noundef ptr @_Z26grpc_channel_stack_elementP18grpc_channel_stackm(ptr noundef %channel_stack, i64 noundef %index) #4 {
entry:
  %channel_stack.addr = alloca ptr, align 8
  %index.addr = alloca i64, align 8
  store ptr %channel_stack, ptr %channel_stack.addr, align 8
  store i64 %index, ptr %index.addr, align 8
  %0 = load ptr, ptr %channel_stack.addr, align 8
  %add.ptr = getelementptr inbounds i8, ptr %0, i64 112
  %1 = load i64, ptr %index.addr, align 8
  %add.ptr1 = getelementptr inbounds %struct.grpc_channel_element, ptr %add.ptr, i64 %1
  ret ptr %add.ptr1
}

; Function Attrs: mustprogress uwtable
define void @_ZN18grpc_channel_stack19InitServerCallSpineEPN9grpc_core18CallSpineInterfaceE(ptr noundef nonnull align 8 dereferenceable(104) %this, ptr noundef %call) #5 align 2 {
entry:
  %this.addr = alloca ptr, align 8
  %call.addr = alloca ptr, align 8
  %i = alloca i64, align 8
  %elem = alloca ptr, align 8
  store ptr %this, ptr %this.addr, align 8
  store ptr %call, ptr %call.addr, align 8
  %this1 = load ptr, ptr %this.addr, align 8
  store i64 0, ptr %i, align 8
  br label %for.cond

for.cond:                                         ; preds = %for.inc, %entry
  %0 = load i64, ptr %i, align 8
  %count = getelementptr inbounds %struct.grpc_channel_stack, ptr %this1, i32 0, i32 1
  %1 = load i64, ptr %count, align 8
  %cmp = icmp ult i64 %0, %1
  br i1 %cmp, label %for.body, label %for.end

for.body:                                         ; preds = %for.cond
  %count2 = getelementptr inbounds %struct.grpc_channel_stack, ptr %this1, i32 0, i32 1
  %2 = load i64, ptr %count2, align 8
  %sub = sub i64 %2, 1
  %3 = load i64, ptr %i, align 8
  %sub3 = sub i64 %sub, %3
  %call4 = call noundef ptr @_Z26grpc_channel_stack_elementP18grpc_channel_stackm(ptr noundef %this1, i64 noundef %sub3)
  store ptr %call4, ptr %elem, align 8
  %4 = load ptr, ptr %elem, align 8
  %filter = getelementptr inbounds %struct.grpc_channel_element, ptr %4, i32 0, i32 0
  %5 = load ptr, ptr %filter, align 8
  %init_call = getelementptr inbounds %struct.grpc_channel_filter, ptr %5, i32 0, i32 2
  %6 = load ptr, ptr %init_call, align 8
  %7 = load ptr, ptr %elem, align 8
  %8 = load ptr, ptr %call.addr, align 8
  call void %6(ptr noundef %7, ptr noundef %8)
  br label %for.inc

for.inc:                                          ; preds = %for.body
  %9 = load i64, ptr %i, align 8
  %inc = add i64 %9, 1
  store i64 %inc, ptr %i, align 8
  br label %for.cond, !llvm.loop !15

for.end:                                          ; preds = %for.cond
  ret void
}